target datalayout = "e-m:e-p270:32:32-p271:32:32-p272:64:64-i64:64-i128:128-f80:128-n8:16:32:64-S128"
target triple = "x86_64-pc-linux-gnu"

%"class.std::__cxx11::basic_string" = type { %"struct.std::__cxx11::basic_string<char>::_Alloc_hider", i64, %union.anon }
%"struct.std::__cxx11::basic_string<char>::_Alloc_hider" = type { ptr }
%union.anon = type { i64, [8 x i8] }
%"struct.std::_Rb_tree_header" = type { %"struct.std::_Rb_tree_node_base", i64 }
%"struct.std::_Rb_tree_node_base" = type { i32, ptr, ptr, ptr }
%"class.boost::unit_test::output::junit_log_formatter" = type { %"class.boost::unit_test::unit_test_log_formatter.base", %"class.std::map", %"struct.boost::unit_test::output::junit_impl::junit_log_helper", %"class.std::__cxx11::list.9", i8, i8, i32 }
%"class.boost::unit_test::unit_test_log_formatter.base" = type <{ ptr, i32 }>
%"class.std::map" = type { %"class.std::_Rb_tree" }
%"class.std::_Rb_tree" = type { %"struct.std::_Rb_tree<unsigned long, std::pair<const unsigned long, boost::unit_test::output::junit_impl::junit_log_helper>, std::_Select1st<std::pair<const unsigned long, boost::unit_test::output::junit_impl::junit_log_helper>>, std::less<unsigned long>>::_Rb_tree_impl" }
%"struct.std::_Rb_tree<unsigned long, std::pair<const unsigned long, boost::unit_test::output::junit_impl::junit_log_helper>, std::_Select1st<std::pair<const unsigned long, boost::unit_test::output::junit_impl::junit_log_helper>>, std::less<unsigned long>>::_Rb_tree_impl" = type { [8 x i8], %"struct.std::_Rb_tree_header" }
%"struct.boost::unit_test::output::junit_impl::junit_log_helper" = type <{ %"class.std::__cxx11::list", %"class.std::__cxx11::list", %"class.std::__cxx11::basic_string", %"class.std::vector", i8, [7 x i8] }>
%"class.std::__cxx11::list" = type { %"class.std::__cxx11::_List_base" }
%"class.std::__cxx11::_List_base" = type { %"struct.std::__cxx11::_List_base<std::__cxx11::basic_string<char>, std::allocator<std::__cxx11::basic_string<char>>>::_List_impl" }
%"struct.std::__cxx11::_List_base<std::__cxx11::basic_string<char>, std::allocator<std::__cxx11::basic_string<char>>>::_List_impl" = type { %"struct.std::__detail::_List_node_header" }
%"struct.std::__detail::_List_node_header" = type { %"struct.std::__detail::_List_node_base", i64 }
%"struct.std::__detail::_List_node_base" = type { ptr, ptr }
%"class.std::vector" = type { %"struct.std::_Vector_base" }
%"struct.std::_Vector_base" = type { %"struct.std::_Vector_base<boost::unit_test::output::junit_impl::junit_log_helper::assertion_entry, std::allocator<boost::unit_test::output::junit_impl::junit_log_helper::assertion_entry>>::_Vector_impl" }
%"struct.std::_Vector_base<boost::unit_test::output::junit_impl::junit_log_helper::assertion_entry, std::allocator<boost::unit_test::output::junit_impl::junit_log_helper::assertion_entry>>::_Vector_impl" = type { %"struct.std::_Vector_base<boost::unit_test::output::junit_impl::junit_log_helper::assertion_entry, std::allocator<boost::unit_test::output::junit_impl::junit_log_helper::assertion_entry>>::_Vector_impl_data" }
%"struct.std::_Vector_base<boost::unit_test::output::junit_impl::junit_log_helper::assertion_entry, std::allocator<boost::unit_test::output::junit_impl::junit_log_helper::assertion_entry>>::_Vector_impl_data" = type { ptr, ptr, ptr }
%"class.std::__cxx11::list.9" = type { %"class.std::__cxx11::_List_base.10" }
%"class.std::__cxx11::_List_base.10" = type { %"struct.std::__cxx11::_List_base<unsigned long, std::allocator<unsigned long>>::_List_impl" }
%"struct.std::__cxx11::_List_base<unsigned long, std::allocator<unsigned long>>::_List_impl" = type { %"struct.std::__detail::_List_node_header" }
%"struct.std::_List_node.100" = type { %"struct.std::__detail::_List_node_base", %"struct.__gnu_cxx::__aligned_membuf.101" }
%"struct.__gnu_cxx::__aligned_membuf.101" = type { [8 x i8] }

; Function Attrs: mustprogress nounwind uwtable
define linkonce_odr hidden void @_ZNSt15__new_allocatorISt10_List_nodeImEE10deallocateEPS1_m(ptr noundef nonnull align 1 dereferenceable(1) %0, ptr noundef %1, i64 noundef %2) #8 comdat align 2 {
  %4 = alloca ptr, align 8
  %5 = alloca ptr, align 8
  %6 = alloca i64, align 8
  store ptr %0, ptr %4, align 8, !tbaa !3
  store ptr %1, ptr %5, align 8, !tbaa !3
  store i64 %2, ptr %6, align 8, !tbaa !12
  %7 = load ptr, ptr %5, align 8, !tbaa !3
  %8 = load i64, ptr %6, align 8, !tbaa !12
  %9 = mul i64 %8, 24
  call void @_ZdlPvm(ptr noundef %7, i64 noundef %9) #19
  ret void
}

; Function Attrs: mustprogress nounwind uwtable
define linkonce_odr hidden noundef ptr @_ZN9__gnu_cxx16__aligned_membufImE7_M_addrEv(ptr noundef nonnull align 8 dereferenceable(8) %0) #8 comdat align 2 {
  %2 = alloca ptr, align 8
  store ptr %0, ptr %2, align 8, !tbaa !3
  %3 = load ptr, ptr %2, align 8
  %4 = getelementptr inbounds nuw %"struct.__gnu_cxx::__aligned_membuf.101", ptr %3, i32 0, i32 0
  ret ptr %4
}

; Function Attrs: mustprogress uwtable
define linkonce_odr hidden void @_ZNSt16allocator_traitsISaISt10_List_nodeImEEE10deallocateERS2_PS1_m(ptr noundef nonnull align 1 dereferenceable(1) %0, ptr noundef %1, i64 noundef %2) #4 comdat align 2 {
  %4 = alloca ptr, align 8
  %5 = alloca ptr, align 8
  %6 = alloca i64, align 8
  store ptr %0, ptr %4, align 8, !tbaa !3
  store ptr %1, ptr %5, align 8, !tbaa !3
  store i64 %2, ptr %6, align 8, !tbaa !12
  %7 = load ptr, ptr %4, align 8, !tbaa !3
  %8 = load ptr, ptr %5, align 8, !tbaa !3
  %9 = load i64, ptr %6, align 8, !tbaa !12
  call void @_ZNSt15__new_allocatorISt10_List_nodeImEE10deallocateEPS1_m(ptr noundef nonnull align 1 dereferenceable(1) %7, ptr noundef %8, i64 noundef %9)
  ret void
}

; Function Attrs: mustprogress nounwind uwtable
define linkonce_odr hidden void @_ZNSt15__new_allocatorISt10_List_nodeImEE7destroyImEEvPT_(ptr noundef nonnull align 1 dereferenceable(1) %0, ptr noundef %1) #8 comdat align 2 {
  %3 = alloca ptr, align 8
  %4 = alloca ptr, align 8
  store ptr %0, ptr %3, align 8, !tbaa !3
  store ptr %1, ptr %4, align 8, !tbaa !3
  ret void
}

; Function Attrs: mustprogress nounwind uwtable
define linkonce_odr hidden noundef ptr @_ZN9__gnu_cxx16__aligned_membufImE6_M_ptrEv(ptr noundef nonnull align 8 dereferenceable(8) %0) #8 comdat align 2 {
  %2 = alloca ptr, align 8
  store ptr %0, ptr %2, align 8, !tbaa !3
  %3 = load ptr, ptr %2, align 8
  %4 = call noundef ptr @_ZN9__gnu_cxx16__aligned_membufImE7_M_addrEv(ptr noundef nonnull align 8 dereferenceable(8) %3) #3
  ret ptr %4
}

; Function Attrs: mustprogress nounwind uwtable
define linkonce_odr hidden noundef ptr @_ZNKSt8_Rb_treeImSt4pairIKmN5boost9unit_test6output10junit_impl16junit_log_helperEESt10_Select1stIS7_ESt4lessImESaIS7_EE9_M_mbeginEv(ptr noundef nonnull align 8 dereferenceable(48) %0) #8 comdat align 2 {
  %2 = alloca ptr, align 8
  store ptr %0, ptr %2, align 8, !tbaa !3
  %3 = load ptr, ptr %2, align 8
  %4 = getelementptr inbounds nuw %"class.std::_Rb_tree", ptr %3, i32 0, i32 0
  %5 = getelementptr inbounds i8, ptr %4, i64 8
  %6 = getelementptr inbounds nuw %"struct.std::_Rb_tree_header", ptr %5, i32 0, i32 0
  %7 = getelementptr inbounds nuw %"struct.std::_Rb_tree_node_base", ptr %6, i32 0, i32 1
  %8 = load ptr, ptr %7, align 8, !tbaa !153
  ret ptr %8
}

; Function Attrs: mustprogress nounwind uwtable
define linkonce_odr hidden void @_ZNSt8__detail17_List_node_header7_M_initEv(ptr noundef nonnull align 8 dereferenceable(24) %0) #8 comdat align 2 {
  %2 = alloca ptr, align 8
  store ptr %0, ptr %2, align 8, !tbaa !3
  %3 = load ptr, ptr %2, align 8
  %4 = getelementptr inbounds nuw %"struct.std::__detail::_List_node_base", ptr %3, i32 0, i32 1
  store ptr %3, ptr %4, align 8, !tbaa !57
  %5 = getelementptr inbounds nuw %"struct.std::__detail::_List_node_base", ptr %3, i32 0, i32 0
  store ptr %3, ptr %5, align 8, !tbaa !139
  %6 = getelementptr inbounds nuw %"struct.std::__detail::_List_node_header", ptr %3, i32 0, i32 1
  store i64 0, ptr %6, align 8, !tbaa !141
  ret void
}

; Function Attrs: mustprogress nounwind uwtable
define linkonce_odr hidden void @_ZNSt7__cxx1110_List_baseImSaImEE11_M_put_nodeEPSt10_List_nodeImE(ptr noundef nonnull align 8 dereferenceable(24) %0, ptr noundef %1) #8 comdat align 2 personality ptr @__gxx_personality_v0 {
  %3 = alloca ptr, align 8
  %4 = alloca ptr, align 8
  store ptr %0, ptr %3, align 8, !tbaa !3
  store ptr %1, ptr %4, align 8, !tbaa !3
  %5 = load ptr, ptr %3, align 8
  %6 = getelementptr inbounds nuw %"class.std::__cxx11::_List_base.10", ptr %5, i32 0, i32 0
  %7 = load ptr, ptr %4, align 8, !tbaa !3
  invoke void @_ZNSt16allocator_traitsISaISt10_List_nodeImEEE10deallocateERS2_PS1_m(ptr noundef nonnull align 1 dereferenceable(1) %6, ptr noundef %7, i64 noundef 1)
          to label %8 unwind label %9

8:                                                ; preds = %2
  ret void

9:                                                ; preds = %2
  %10 = landingpad { ptr, i32 }
          catch ptr null
  %11 = extractvalue { ptr, i32 } %10, 0
  call void @__clang_call_terminate(ptr %11) #17
  unreachable
}

; Function Attrs: mustprogress nounwind uwtable
define linkonce_odr hidden void @_ZNSt16allocator_traitsISaISt10_List_nodeImEEE7destroyImEEvRS2_PT_(ptr noundef nonnull align 1 dereferenceable(1) %0, ptr noundef %1) #8 comdat align 2 {
  %3 = alloca ptr, align 8
  %4 = alloca ptr, align 8
  store ptr %0, ptr %3, align 8, !tbaa !3
  store ptr %1, ptr %4, align 8, !tbaa !3
  %5 = load ptr, ptr %3, align 8, !tbaa !3
  %6 = load ptr, ptr %4, align 8, !tbaa !3
  call void @_ZNSt15__new_allocatorISt10_List_nodeImEE7destroyImEEvPT_(ptr noundef nonnull align 1 dereferenceable(1) %5, ptr noundef %6) #3
  ret void
}

; Function Attrs: mustprogress nounwind uwtable
define linkonce_odr hidden noundef nonnull align 1 dereferenceable(1) ptr @_ZNSt7__cxx1110_List_baseImSaImEE21_M_get_Node_allocatorEv(ptr noundef nonnull align 8 dereferenceable(24) %0) #8 comdat align 2 {
  %2 = alloca ptr, align 8
  store ptr %0, ptr %2, align 8, !tbaa !3
  %3 = load ptr, ptr %2, align 8
  %4 = getelementptr inbounds nuw %"class.std::__cxx11::_List_base.10", ptr %3, i32 0, i32 0
  ret ptr %4
}

; Function Attrs: mustprogress nounwind uwtable
define linkonce_odr hidden noundef ptr @_ZNSt10_List_nodeImE9_M_valptrEv(ptr noundef nonnull align 8 dereferenceable(24) %0) #8 comdat align 2 {
  %2 = alloca ptr, align 8
  store ptr %0, ptr %2, align 8, !tbaa !3
  %3 = load ptr, ptr %2, align 8
  %4 = getelementptr inbounds nuw %"struct.std::_List_node.100", ptr %3, i32 0, i32 1
  %5 = call noundef ptr @_ZN9__gnu_cxx16__aligned_membufImE6_M_ptrEv(ptr noundef nonnull align 8 dereferenceable(8) %4) #3
  ret ptr %5
}

; Function Attrs: mustprogress nounwind uwtable
define linkonce_odr hidden void @_ZNSt15_Rb_tree_header8_M_resetEv(ptr noundef nonnull align 8 dereferenceable(40) %0) #8 comdat align 2 {
  %2 = alloca ptr, align 8
  store ptr %0, ptr %2, align 8, !tbaa !3
  %3 = load ptr, ptr %2, align 8
  %4 = getelementptr inbounds nuw %"struct.std::_Rb_tree_header", ptr %3, i32 0, i32 0
  %5 = getelementptr inbounds nuw %"struct.std::_Rb_tree_node_base", ptr %4, i32 0, i32 1
  store ptr null, ptr %5, align 8, !tbaa !153
  %6 = getelementptr inbounds nuw %"struct.std::_Rb_tree_header", ptr %3, i32 0, i32 0
  %7 = getelementptr inbounds nuw %"struct.std::_Rb_tree_header", ptr %3, i32 0, i32 0
  %8 = getelementptr inbounds nuw %"struct.std::_Rb_tree_node_base", ptr %7, i32 0, i32 2
  store ptr %6, ptr %8, align 8, !tbaa !189
  %9 = getelementptr inbounds nuw %"struct.std::_Rb_tree_header", ptr %3, i32 0, i32 0
  %10 = getelementptr inbounds nuw %"struct.std::_Rb_tree_header", ptr %3, i32 0, i32 0
  %11 = getelementptr inbounds nuw %"struct.std::_Rb_tree_node_base", ptr %10, i32 0, i32 3
  store ptr %9, ptr %11, align 8, !tbaa !190
  %12 = getelementptr inbounds nuw %"struct.std::_Rb_tree_header", ptr %3, i32 0, i32 1
  store i64 0, ptr %12, align 8, !tbaa !191
  ret void
}

; Function Attrs: mustprogress nounwind uwtable
define linkonce_odr hidden noundef ptr @_ZNSt8_Rb_treeImSt4pairIKmN5boost9unit_test6output10junit_impl16junit_log_helperEESt10_Select1stIS7_ESt4lessImESaIS7_EE8_M_beginEv(ptr noundef nonnull align 8 dereferenceable(48) %0) #8 comdat align 2 {
  %2 = alloca ptr, align 8
  store ptr %0, ptr %2, align 8, !tbaa !3
  %3 = load ptr, ptr %2, align 8
  %4 = call noundef ptr @_ZNKSt8_Rb_treeImSt4pairIKmN5boost9unit_test6output10junit_impl16junit_log_helperEESt10_Select1stIS7_ESt4lessImESaIS7_EE9_M_mbeginEv(ptr noundef nonnull align 8 dereferenceable(48) %3) #3
  ret ptr %4
}

; Function Attrs: mustprogress nounwind uwtable
define linkonce_odr hidden void @_ZNSt7__cxx1110_List_baseImSaImEE7_M_initEv(ptr noundef nonnull align 8 dereferenceable(24) %0) #8 comdat align 2 {
  %2 = alloca ptr, align 8
  store ptr %0, ptr %2, align 8, !tbaa !3
  %3 = load ptr, ptr %2, align 8
  %4 = getelementptr inbounds nuw %"class.std::__cxx11::_List_base.10", ptr %3, i32 0, i32 0
  %5 = getelementptr inbounds nuw %"struct.std::__cxx11::_List_base<unsigned long, std::allocator<unsigned long>>::_List_impl", ptr %4, i32 0, i32 0
  call void @_ZNSt8__detail17_List_node_header7_M_initEv(ptr noundef nonnull align 8 dereferenceable(24) %5) #3
  ret void
}

; Function Attrs: mustprogress nounwind uwtable
define linkonce_odr void @_ZNSt7__cxx1110_List_baseImSaImEE8_M_clearEv(ptr noundef nonnull align 8 dereferenceable(24) %0) #8 comdat align 2 {
  %2 = alloca ptr, align 8
  %3 = alloca ptr, align 8
  %4 = alloca ptr, align 8
  %5 = alloca ptr, align 8
  store ptr %0, ptr %2, align 8, !tbaa !3
  %6 = load ptr, ptr %2, align 8
  call void @llvm.lifetime.start.p0(i64 8, ptr %3) #3
  %7 = getelementptr inbounds nuw %"class.std::__cxx11::_List_base.10", ptr %6, i32 0, i32 0
  %8 = getelementptr inbounds nuw %"struct.std::__cxx11::_List_base<unsigned long, std::allocator<unsigned long>>::_List_impl", ptr %7, i32 0, i32 0
  %9 = getelementptr inbounds nuw %"struct.std::__detail::_List_node_base", ptr %8, i32 0, i32 0
  %10 = load ptr, ptr %9, align 8, !tbaa !139
  store ptr %10, ptr %3, align 8, !tbaa !3
  br label %11

11:                                               ; preds = %16, %1
  %12 = load ptr, ptr %3, align 8, !tbaa !3
  %13 = getelementptr inbounds nuw %"class.std::__cxx11::_List_base.10", ptr %6, i32 0, i32 0
  %14 = getelementptr inbounds nuw %"struct.std::__cxx11::_List_base<unsigned long, std::allocator<unsigned long>>::_List_impl", ptr %13, i32 0, i32 0
  %15 = icmp ne ptr %12, %14
  br i1 %15, label %16, label %26

16:                                               ; preds = %11
  call void @llvm.lifetime.start.p0(i64 8, ptr %4) #3
  %17 = load ptr, ptr %3, align 8, !tbaa !3
  store ptr %17, ptr %4, align 8, !tbaa !3
  %18 = load ptr, ptr %4, align 8, !tbaa !3
  %19 = getelementptr inbounds nuw %"struct.std::__detail::_List_node_base", ptr %18, i32 0, i32 0
  %20 = load ptr, ptr %19, align 8, !tbaa !139
  store ptr %20, ptr %3, align 8, !tbaa !3
  call void @llvm.lifetime.start.p0(i64 8, ptr %5) #3
  %21 = load ptr, ptr %4, align 8, !tbaa !3
  %22 = call noundef ptr @_ZNSt10_List_nodeImE9_M_valptrEv(ptr noundef nonnull align 8 dereferenceable(24) %21)
  store ptr %22, ptr %5, align 8, !tbaa !3
  %23 = call noundef nonnull align 1 dereferenceable(1) ptr @_ZNSt7__cxx1110_List_baseImSaImEE21_M_get_Node_allocatorEv(ptr noundef nonnull align 8 dereferenceable(24) %6) #3
  %24 = load ptr, ptr %5, align 8, !tbaa !3
  call void @_ZNSt16allocator_traitsISaISt10_List_nodeImEEE7destroyImEEvRS2_PT_(ptr noundef nonnull align 1 dereferenceable(1) %23, ptr noundef %24) #3
  %25 = load ptr, ptr %4, align 8, !tbaa !3
  call void @_ZNSt7__cxx1110_List_baseImSaImEE11_M_put_nodeEPSt10_List_nodeImE(ptr noundef nonnull align 8 dereferenceable(24) %6, ptr noundef %25) #3
  call void @llvm.lifetime.end.p0(i64 8, ptr %5) #3
  call void @llvm.lifetime.end.p0(i64 8, ptr %4) #3
  br label %11, !llvm.loop !233

26:                                               ; preds = %11
  call void @llvm.lifetime.end.p0(i64 8, ptr %3) #3
  ret void
}

; Function Attrs: mustprogress nounwind uwtable
define linkonce_odr hidden void @_ZNSt8_Rb_treeImSt4pairIKmN5boost9unit_test6output10junit_impl16junit_log_helperEESt10_Select1stIS7_ESt4lessImESaIS7_EE5clearEv(ptr noundef nonnull align 8 dereferenceable(48) %0) #8 comdat align 2 personality ptr @__gxx_personality_v0 {
  %2 = alloca ptr, align 8
  store ptr %0, ptr %2, align 8, !tbaa !3
  %3 = load ptr, ptr %2, align 8
  %4 = call noundef ptr @_ZNSt8_Rb_treeImSt4pairIKmN5boost9unit_test6output10junit_impl16junit_log_helperEESt10_Select1stIS7_ESt4lessImESaIS7_EE8_M_beginEv(ptr noundef nonnull align 8 dereferenceable(48) %3) #3
  invoke void @_ZNSt8_Rb_treeImSt4pairIKmN5boost9unit_test6output10junit_impl16junit_log_helperEESt10_Select1stIS7_ESt4lessImESaIS7_EE8_M_eraseEPSt13_Rb_tree_nodeIS7_E(ptr noundef nonnull align 8 dereferenceable(48) %3, ptr noundef %4)
          to label %5 unwind label %8

5:                                                ; preds = %1
  %6 = getelementptr inbounds nuw %"class.std::_Rb_tree", ptr %3, i32 0, i32 0
  %7 = getelementptr inbounds i8, ptr %6, i64 8
  call void @_ZNSt15_Rb_tree_header8_M_resetEv(ptr noundef nonnull align 8 dereferenceable(40) %7)
  ret void

8:                                                ; preds = %1
  %9 = landingpad { ptr, i32 }
          catch ptr null
  %10 = extractvalue { ptr, i32 } %9, 0
  call void @__clang_call_terminate(ptr %10) #17
  unreachable
}

; Function Attrs: mustprogress nounwind uwtable
define linkonce_odr hidden void @_ZNSt7__cxx114listImSaImEE5clearEv(ptr noundef nonnull align 8 dereferenceable(24) %0) #8 comdat align 2 {
  %2 = alloca ptr, align 8
  store ptr %0, ptr %2, align 8, !tbaa !3
  %3 = load ptr, ptr %2, align 8
  call void @_ZNSt7__cxx1110_List_baseImSaImEE8_M_clearEv(ptr noundef nonnull align 8 dereferenceable(24) %3) #3
  call void @_ZNSt7__cxx1110_List_baseImSaImEE7_M_initEv(ptr noundef nonnull align 8 dereferenceable(24) %3) #3
  ret void
}

; Function Attrs: mustprogress nounwind uwtable
define linkonce_odr hidden void @_ZNSt3mapImN5boost9unit_test6output10junit_impl16junit_log_helperESt4lessImESaISt4pairIKmS4_EEE5clearEv(ptr noundef nonnull align 8 dereferenceable(48) %0) #8 comdat align 2 {
  %2 = alloca ptr, align 8
  store ptr %0, ptr %2, align 8, !tbaa !3
  %3 = load ptr, ptr %2, align 8
  %4 = getelementptr inbounds nuw %"class.std::map", ptr %3, i32 0, i32 0
  call void @_ZNSt8_Rb_treeImSt4pairIKmN5boost9unit_test6output10junit_impl16junit_log_helperEESt10_Select1stIS7_ESt4lessImESaIS7_EE5clearEv(ptr noundef nonnull align 8 dereferenceable(48) %4) #3
  ret void
}

; Function Attrs: mustprogress uwtable
define hidden void @_ZN5boost9unit_test6output19junit_log_formatter9log_startERSom(ptr noundef nonnull align 8 dereferenceable(208) %0, ptr noundef nonnull align 8 dereferenceable(8) %1, i64 noundef %2) unnamed_addr #4 align 2 {
  %4 = alloca ptr, align 8
  %5 = alloca ptr, align 8
  %6 = alloca i64, align 8
  store ptr %0, ptr %4, align 8, !tbaa !3
  store ptr %1, ptr %5, align 8, !tbaa !3
  store i64 %2, ptr %6, align 8, !tbaa !12
  %7 = load ptr, ptr %4, align 8
  %8 = getelementptr inbounds nuw %"class.boost::unit_test::output::junit_log_formatter", ptr %7, i32 0, i32 1
  call void @_ZNSt3mapImN5boost9unit_test6output10junit_impl16junit_log_helperESt4lessImESaISt4pairIKmS4_EEE5clearEv(ptr noundef nonnull align 8 dereferenceable(48) %8) #3
  %9 = getelementptr inbounds nuw %"class.boost::unit_test::output::junit_log_formatter", ptr %7, i32 0, i32 3
  call void @_ZNSt7__cxx114listImSaImEE5clearEv(ptr noundef nonnull align 8 dereferenceable(24) %9) #3
  %10 = getelementptr inbounds nuw %"class.boost::unit_test::output::junit_log_formatter", ptr %7, i32 0, i32 2
  call void @_ZN5boost9unit_test6output10junit_impl16junit_log_helper5clearEv(ptr noundef nonnull align 8 dereferenceable(105) %10)
  ret void
}