; Function Attrs: mustprogress nounwind uwtable
define hidden void @_ZN5boost9unit_test6output19junit_log_formatter9log_startERSom(ptr noundef nonnull align 8 dereferenceable(208) %0, ptr nocapture nonnull readnone align 8 %1, i64 %2) unnamed_addr #6 align 2 personality ptr @__gxx_personality_v0 {
  %4 = getelementptr inbounds nuw i8, ptr %0, i64 16
  %5 = getelementptr inbounds i8, ptr %0, i64 32
  %6 = load ptr, ptr %5, align 8, !tbaa !13
  invoke void @_ZNSt8_Rb_treeImSt4pairIKmN5boost9unit_test6output10junit_impl16junit_log_helperEESt10_Select1stIS7_ESt4lessImESaIS7_EE8_M_eraseEPSt13_Rb_tree_nodeIS7_E(ptr noundef nonnull align 8 dereferenceable(48) %4, ptr noundef %6)
          to label %_ZNSt3mapImN5boost9unit_test6output10junit_impl16junit_log_helperESt4lessImESaISt4pairIKmS4_EEE5clearEv.exit unwind label %7

7:                                                ; preds = %3
  %8 = landingpad { ptr, i32 }
          catch ptr null
  %9 = extractvalue { ptr, i32 } %8, 0
  tail call void @__clang_call_terminate(ptr %9) #25
  unreachable

_ZNSt3mapImN5boost9unit_test6output10junit_impl16junit_log_helperESt4lessImESaISt4pairIKmS4_EEE5clearEv.exit: ; preds = %3
  %10 = getelementptr inbounds i8, ptr %0, i64 24
  store ptr null, ptr %5, align 8, !tbaa !13
  %11 = getelementptr inbounds i8, ptr %0, i64 40
  store ptr %10, ptr %11, align 8, !tbaa !18
  %12 = getelementptr inbounds i8, ptr %0, i64 48
  store ptr %10, ptr %12, align 8, !tbaa !19
  %13 = getelementptr inbounds i8, ptr %0, i64 56
  store i64 0, ptr %13, align 8, !tbaa !20
  %14 = getelementptr inbounds nuw i8, ptr %0, i64 176
  %15 = load ptr, ptr %14, align 8, !tbaa !21
  %.not8.i.i = icmp eq ptr %15, %14
  br i1 %.not8.i.i, label %_ZNSt7__cxx114listImSaImEE5clearEv.exit, label %.lr.ph.i.i

.lr.ph.i.i:                                       ; preds = %_ZNSt3mapImN5boost9unit_test6output10junit_impl16junit_log_helperESt4lessImESaISt4pairIKmS4_EEE5clearEv.exit, %.lr.ph.i.i
  %.09.i.i = phi ptr [ %16, %.lr.ph.i.i ], [ %15, %_ZNSt3mapImN5boost9unit_test6output10junit_impl16junit_log_helperESt4lessImESaISt4pairIKmS4_EEE5clearEv.exit ]
  %16 = load ptr, ptr %.09.i.i, align 8, !tbaa !21
  tail call void @_ZdlPvm(ptr noundef nonnull %.09.i.i, i64 noundef 24) #26
  %.not.i.i = icmp eq ptr %16, %14
  br i1 %.not.i.i, label %_ZNSt7__cxx114listImSaImEE5clearEv.exit, label %.lr.ph.i.i, !llvm.loop !23

_ZNSt7__cxx114listImSaImEE5clearEv.exit:          ; preds = %.lr.ph.i.i, %_ZNSt3mapImN5boost9unit_test6output10junit_impl16junit_log_helperESt4lessImESaISt4pairIKmS4_EEE5clearEv.exit
  %17 = getelementptr inbounds nuw i8, ptr %0, i64 184
  store ptr %14, ptr %17, align 8, !tbaa !24
  store ptr %14, ptr %14, align 8, !tbaa !21
  %18 = getelementptr inbounds nuw i8, ptr %0, i64 192
  store i64 0, ptr %18, align 8, !tbaa !25
  %19 = getelementptr inbounds nuw i8, ptr %0, i64 64
  tail call void @_ZN5boost9unit_test6output10junit_impl16junit_log_helper5clearEv(ptr noundef nonnull align 8 dereferenceable(105) %19)
  ret void
}